; Function Attrs: nounwind uwtable
define i32 @cli_unpackelf(ptr noundef %0) local_unnamed_addr #0 {
  %2 = alloca ptr, align 8
  store ptr null, ptr %2, align 8
  %3 = tail call ptr @cli_bytecode_context_alloc() #8
  %.not = icmp eq ptr %3, null
  br i1 %.not, label %.thread47, label %4

.thread47:                                        ; preds = %1
  tail call void (ptr, ...) @cli_errmsg(ptr noundef nonnull @.str.24) #8
  br label %32

4:                                                ; preds = %1
  tail call void @cli_bytecode_context_setctx(ptr noundef nonnull %3, ptr noundef %0) #8
  tail call void (ptr, ...) @cli_dbgmsg(ptr noundef nonnull @.str.25) #8
  %5 = getelementptr inbounds i8, ptr %0, i64 48
  %6 = load ptr, ptr %5, align 8
  %7 = getelementptr inbounds i8, ptr %0, i64 96
  %8 = load ptr, ptr %7, align 8
  %9 = tail call i32 @cli_bytecode_runhook(ptr noundef %0, ptr noundef %6, ptr noundef nonnull %3, i32 noundef 261, ptr noundef %8) #8
  tail call void (ptr, ...) @cli_dbgmsg(ptr noundef nonnull @.str.26) #8
  %10 = icmp eq i32 %9, 0
  br i1 %10, label %11, label %.thread43

11:                                               ; preds = %4
  %12 = call i32 @cli_bytecode_context_getresult_file(ptr noundef nonnull %3, ptr noundef nonnull %2) #8
  %13 = icmp ne i32 %12, -1
  %14 = load ptr, ptr %2, align 8
  %15 = icmp ne ptr %14, null
  %or.cond = select i1 %13, i1 %15, i1 false
  br i1 %or.cond, label %.thread33, label %19

.thread33:                                        ; preds = %11
  call void (ptr, ...) @cli_dbgmsg(ptr noundef nonnull @.str.27, ptr noundef nonnull %14) #8
  %16 = call i64 @lseek(i32 noundef %12, i64 noundef 0, i32 noundef 0) #8
  call void (ptr, ...) @cli_dbgmsg(ptr noundef nonnull @.str.28) #8
  %17 = load ptr, ptr %2, align 8
  %18 = call i32 @cli_magic_scan_desc(i32 noundef %12, ptr noundef %17, ptr noundef nonnull %0, ptr noundef null, i32 noundef 0) #8
  br label %20

19:                                               ; preds = %11
  %.not26 = icmp eq i32 %12, -1
  br i1 %.not26, label %.thread, label %20

20:                                               ; preds = %.thread33, %19
  %.038 = phi i32 [ %18, %.thread33 ], [ 0, %19 ]
  %21 = call i32 @close(i32 noundef %12) #8
  %.pre = load ptr, ptr %2, align 8
  br label %.thread

.thread:                                          ; preds = %20, %19
  %22 = phi ptr [ %.pre, %20 ], [ %14, %19 ]
  %.032 = phi i32 [ %.038, %20 ], [ 0, %19 ]
  %.not27 = icmp eq ptr %22, null
  br i1 %.not27, label %.thread43, label %23

23:                                               ; preds = %.thread
  %24 = getelementptr inbounds i8, ptr %0, i64 48
  %25 = load ptr, ptr %24, align 8
  %26 = getelementptr inbounds i8, ptr %25, i64 40
  %27 = load i32, ptr %26, align 8
  %.not28 = icmp eq i32 %27, 0
  br i1 %.not28, label %28, label %30

28:                                               ; preds = %23
  %29 = call i32 @cli_unlink(ptr noundef nonnull %22) #8
  %.pre39 = load ptr, ptr %2, align 8
  br label %30

30:                                               ; preds = %28, %23
  %31 = phi ptr [ %.pre39, %28 ], [ %22, %23 ]
  call void @free(ptr noundef %31) #8
  br label %.thread43

.thread43:                                        ; preds = %.thread, %30, %4
  %.0324245 = phi i32 [ %9, %4 ], [ %.032, %30 ], [ %.032, %.thread ]
  call void @cli_bytecode_context_destroy(ptr noundef nonnull %3) #8
  br label %32

32:                                               ; preds = %.thread47, %.thread43
  %.0324246 = phi i32 [ %.0324245, %.thread43 ], [ 20, %.thread47 ]
  ret i32 %.0324246
}